target datalayout = "e-m:e-p270:32:32-p271:32:32-p272:64:64-i64:64-i128:128-f80:128-n8:16:32:64-S128"
target triple = "x86_64-pc-linux-gnu"

%struct.prov_sha3_meth_st = type { ptr, ptr, ptr }
%struct.keccak_st = type { [5 x [5 x i64]], [168 x i8], i64, i64, i64, i8, %struct.prov_sha3_meth_st, i32 }

@.str = private unnamed_addr constant [57 x i8] c"../openssl/providers/implementations/digests/sha3_prov.c\00", align 1
@__func__.keccak_final = private unnamed_addr constant [13 x i8] c"keccak_final\00", align 1

; Function Attrs: nounwind uwtable
define internal i32 @keccak_final(ptr noundef %0, ptr noundef %1, ptr noundef %2, i64 noundef %3) #0 {
  %5 = alloca i32, align 4
  %6 = alloca ptr, align 8
  %7 = alloca ptr, align 8
  %8 = alloca ptr, align 8
  %9 = alloca i64, align 8
  %10 = alloca i32, align 4
  %11 = alloca ptr, align 8
  %12 = alloca i32, align 4
  store ptr %0, ptr %6, align 8, !tbaa !3
  store ptr %1, ptr %7, align 8, !tbaa !10
  store ptr %2, ptr %8, align 8, !tbaa !20
  store i64 %3, ptr %9, align 8, !tbaa !12
  call void @llvm.lifetime.start.p0(i64 4, ptr %10) #5
  store i32 1, ptr %10, align 4, !tbaa !22
  call void @llvm.lifetime.start.p0(i64 8, ptr %11) #5
  %13 = load ptr, ptr %6, align 8, !tbaa !3
  store ptr %13, ptr %11, align 8, !tbaa !7
  %14 = call i32 @ossl_prov_is_running()
  %15 = icmp ne i32 %14, 0
  br i1 %15, label %17, label %16

16:                                               ; preds = %4
  store i32 0, ptr %5, align 4
  store i32 1, ptr %12, align 4
  br label %43

17:                                               ; preds = %4
  %18 = load ptr, ptr %11, align 8, !tbaa !7
  %19 = getelementptr inbounds nuw %struct.keccak_st, ptr %18, i32 0, i32 3
  %20 = load i64, ptr %19, align 8, !tbaa !23
  %21 = icmp eq i64 %20, -1
  br i1 %21, label %22, label %23

22:                                               ; preds = %17
  call void @ERR_new()
  call void @ERR_set_debug(ptr noundef @.str, i32 noundef 120, ptr noundef @__func__.keccak_final)
  call void (i32, i32, ptr, ...) @ERR_set_error(i32 noundef 57, i32 noundef 166, ptr noundef null)
  store i32 0, ptr %5, align 4
  store i32 1, ptr %12, align 4
  br label %43

23:                                               ; preds = %17
  %24 = load i64, ptr %9, align 8, !tbaa !12
  %25 = icmp ugt i64 %24, 0
  br i1 %25, label %26, label %37

26:                                               ; preds = %23
  %27 = load ptr, ptr %11, align 8, !tbaa !7
  %28 = getelementptr inbounds nuw %struct.keccak_st, ptr %27, i32 0, i32 6
  %29 = getelementptr inbounds nuw %struct.prov_sha3_meth_st, ptr %28, i32 0, i32 1
  %30 = load ptr, ptr %29, align 8, !tbaa !24
  %31 = load ptr, ptr %11, align 8, !tbaa !7
  %32 = load ptr, ptr %7, align 8, !tbaa !10
  %33 = load ptr, ptr %11, align 8, !tbaa !7
  %34 = getelementptr inbounds nuw %struct.keccak_st, ptr %33, i32 0, i32 3
  %35 = load i64, ptr %34, align 8, !tbaa !23
  %36 = call i32 %30(ptr noundef %31, ptr noundef %32, i64 noundef %35)
  store i32 %36, ptr %10, align 4, !tbaa !22
  br label %37

37:                                               ; preds = %26, %23
  %38 = load ptr, ptr %11, align 8, !tbaa !7
  %39 = getelementptr inbounds nuw %struct.keccak_st, ptr %38, i32 0, i32 3
  %40 = load i64, ptr %39, align 8, !tbaa !23
  %41 = load ptr, ptr %8, align 8, !tbaa !20
  store i64 %40, ptr %41, align 8, !tbaa !12
  %42 = load i32, ptr %10, align 4, !tbaa !22
  store i32 %42, ptr %5, align 4
  store i32 1, ptr %12, align 4
  br label %43

43:                                               ; preds = %37, %22, %16
  call void @llvm.lifetime.end.p0(i64 8, ptr %11) #5
  call void @llvm.lifetime.end.p0(i64 4, ptr %10) #5
  %44 = load i32, ptr %5, align 4
  ret i32 %44
}