; Function Attrs: nounwind uwtable
define internal i32 @keccak_final(ptr noundef %0, ptr noundef %1, ptr noundef writeonly captures(none) %2, i64 noundef %3) #0 {
  %5 = tail call i32 @ossl_prov_is_running() #5
  %.not = icmp eq i32 %5, 0
  br i1 %.not, label %18, label %6

6:                                                ; preds = %4
  %7 = getelementptr inbounds nuw i8, ptr %0, i64 376
  %8 = load i64, ptr %7, align 8, !tbaa !15
  %9 = icmp eq i64 %8, -1
  br i1 %9, label %10, label %11

10:                                               ; preds = %6
  tail call void @ERR_new() #5
  tail call void @ERR_set_debug(ptr noundef nonnull @.str, i32 noundef 120, ptr noundef nonnull @__func__.keccak_final) #5
  tail call void (i32, i32, ptr, ...) @ERR_set_error(i32 noundef 57, i32 noundef 166, ptr noundef null) #5
  br label %18

11:                                               ; preds = %6
  %.not12 = icmp eq i64 %3, 0
  br i1 %.not12, label %16, label %12

12:                                               ; preds = %11
  %13 = getelementptr inbounds nuw i8, ptr %0, i64 408
  %14 = load ptr, ptr %13, align 8, !tbaa !16
  %15 = tail call i32 %14(ptr noundef nonnull %0, ptr noundef %1, i64 noundef %8) #5
  %.pre = load i64, ptr %7, align 8, !tbaa !15
  br label %16

16:                                               ; preds = %12, %11
  %17 = phi i64 [ %.pre, %12 ], [ %8, %11 ]
  %.010 = phi i32 [ %15, %12 ], [ 1, %11 ]
  store i64 %17, ptr %2, align 8, !tbaa !17
  br label %18

18:                                               ; preds = %4, %16, %10
  %.0 = phi i32 [ 0, %10 ], [ %.010, %16 ], [ 0, %4 ]
  ret i32 %.0
}